(lp0
(S'cppflags'
p1
ccopy_reg
_reconstructor
p2
(cino.utils
SpaceList
p3
c__builtin__
list
p4
(lp5
S'-mmcu=atmega328p'
p6
aS'-DF_CPU=16000000L'
p7
aS'-DARDUINO=104'
p8
aS'-I/Applications/Arduino.app/Contents/Resources/Java/hardware/arduino/cores/arduino'
p9
aS'-ffunction-sections'
p10
aS'-fdata-sections'
p11
aS'-g'
p12
aS'-Os'
p13
aS'-w'
p14
aS'-I/Applications/Arduino.app/Contents/Resources/Java/hardware/arduino/variants/standard'
p15
aS'-I/Applications/Arduino.app/Contents/Resources/Java/hardware/arduino/cores/arduino'
p16
atp17
Rp18
tp19
a(S'cxx'
p20
S'/Applications/Arduino.app/Contents/Resources/Java/hardware/tools/avr/bin/avr-g++'
p21
tp22
a(S'version.txt'
p23
S'/Applications/Arduino.app/Contents/Resources/Java/lib/version.txt'
p24
tp25
a(S'used_libs'
p26
(lp27
S'/Applications/Arduino.app/Contents/Resources/Java/hardware/arduino/cores/arduino'
p28
atp29
a(S'cc'
p30
S'/Applications/Arduino.app/Contents/Resources/Java/hardware/tools/avr/bin/avr-gcc'
p31
tp32
a(S'make'
p33
S'/Applications/Arduino.app/Contents/Resources/Java/hardware/tools/avr/bin/make'
p34
tp35
a(S'cflags'
p36
g2
(g3
g4
(lp37
tp38
Rp39
tp40
a(S'build_dir'
p41
S'.build/atmega328'
p42
tp43
a(S'arduino_core_dir'
p44
g28
tp45
a(S'boards.txt'
p46
S'/Applications/Arduino.app/Contents/Resources/Java/hardware/arduino/boards.txt'
p47
tp48
a(S'cxxflags'
p49
g2
(g3
g4
(lp50
S'-fno-exceptions'
p51
atp52
Rp53
tp54
a(S'arduino_variants_dir'
p55
S'/Applications/Arduino.app/Contents/Resources/Java/hardware/arduino/variants'
p56
tp57
a(S'ar'
p58
S'/Applications/Arduino.app/Contents/Resources/Java/hardware/tools/avr/bin/avr-ar'
p59
tp60
a(S'names'
p61
(dp62
S'cpp'
p63
S'%s.cpp'
p64
sS'obj'
p65
S'%s.o'
p66
sS'deps'
p67
S'%s.d'
p68
sS'lib'
p69
S'lib%s.a'
p70
stp71
a(S'deps'
p72
g2
(g3
g4
(lp73
S'.build/atmega328/src/dependencies.d'
p74
aS'.build/atmega328/arduino/dependencies.d'
p75
atp76
Rp77
tp78
a(S'arduino_libraries_dir'
p79
S'/Applications/Arduino.app/Contents/Resources/Java/libraries'
p80
tp81
a(S'arduino_lib_version'
p82
g2
(cino.environment
Version
p83
c__builtin__
tuple
p84
(I1
I0
I4
tp85
tp86
Rp87
tp88
a(S'objcopy'
p89
S'/Applications/Arduino.app/Contents/Resources/Java/hardware/tools/avr/bin/avr-objcopy'
p90
tp91
a(S'board_models'
p92
cino.environment
BoardModels
p93
((lp94
(lp95
S'uno'
p96
a(dp97
S'bootloader'
p98
(dp99
S'extended_fuses'
p100
S'0x05'
p101
sS'high_fuses'
p102
S'0xde'
p103
sS'low_fuses'
p104
S'0xff'
p105
sS'lock_bits'
p106
S'0x0F'
p107
sS'file'
p108
S'optiboot_atmega328.hex'
p109
sS'path'
p110
S'optiboot'
p111
sS'unlock_bits'
p112
S'0x3F'
p113
ssS'upload'
p114
(dp115
S'protocol'
p116
S'arduino'
p117
sS'maximum_size'
p118
S'32256'
p119
sS'speed'
p120
S'115200'
p121
ssS'build'
p122
(dp123
S'core'
p124
S'arduino'
p125
sS'mcu'
p126
S'atmega328p'
p127
sS'f_cpu'
p128
S'16000000L'
p129
sS'variant'
p130
S'standard'
p131
ssS'name'
p132
S'Arduino Uno'
p133
saa(lp134
S'atmega328'
p135
a(dp136
S'bootloader'
p137
(dp138
S'extended_fuses'
p139
S'0x05'
p140
sS'high_fuses'
p141
S'0xDA'
p142
sS'low_fuses'
p143
S'0xFF'
p144
sS'lock_bits'
p145
S'0x0F'
p146
sS'file'
p147
S'ATmegaBOOT_168_atmega328.hex'
p148
sS'path'
p149
S'atmega'
p150
sS'unlock_bits'
p151
S'0x3F'
p152
ssS'upload'
p153
(dp154
S'protocol'
p155
S'arduino'
p156
sS'maximum_size'
p157
S'30720'
p158
sS'speed'
p159
S'57600'
p160
ssS'build'
p161
(dp162
S'core'
p163
S'arduino'
p164
sS'mcu'
p165
S'atmega328p'
p166
sS'f_cpu'
p167
S'16000000L'
p168
sS'variant'
p169
S'standard'
p170
ssS'name'
p171
S'Arduino Duemilanove w/ ATmega328'
p172
saa(lp173
S'diecimila'
p174
a(dp175
S'bootloader'
p176
(dp177
S'extended_fuses'
p178
S'0x00'
p179
sS'high_fuses'
p180
S'0xdd'
p181
sS'low_fuses'
p182
S'0xff'
p183
sS'lock_bits'
p184
S'0x0F'
p185
sS'file'
p186
S'ATmegaBOOT_168_diecimila.hex'
p187
sS'path'
p188
S'atmega'
p189
sS'unlock_bits'
p190
S'0x3F'
p191
ssS'upload'
p192
(dp193
S'protocol'
p194
S'arduino'
p195
sS'maximum_size'
p196
S'14336'
p197
sS'speed'
p198
S'19200'
p199
ssS'build'
p200
(dp201
S'core'
p202
S'arduino'
p203
sS'mcu'
p204
S'atmega168'
p205
sS'f_cpu'
p206
S'16000000L'
p207
sS'variant'
p208
S'standard'
p209
ssS'name'
p210
S'Arduino Diecimila or Duemilanove w/ ATmega168'
p211
saa(lp212
S'nano328'
p213
a(dp214
S'bootloader'
p215
(dp216
S'extended_fuses'
p217
S'0x05'
p218
sS'high_fuses'
p219
S'0xDA'
p220
sS'low_fuses'
p221
S'0xFF'
p222
sS'lock_bits'
p223
S'0x0F'
p224
sS'file'
p225
S'ATmegaBOOT_168_atmega328.hex'
p226
sS'path'
p227
S'atmega'
p228
sS'unlock_bits'
p229
S'0x3F'
p230
ssS'upload'
p231
(dp232
S'protocol'
p233
S'arduino'
p234
sS'maximum_size'
p235
S'30720'
p236
sS'speed'
p237
S'57600'
p238
ssS'build'
p239
(dp240
S'core'
p241
S'arduino'
p242
sS'mcu'
p243
S'atmega328p'
p244
sS'f_cpu'
p245
S'16000000L'
p246
sS'variant'
p247
S'eightanaloginputs'
p248
ssS'name'
p249
S'Arduino Nano w/ ATmega328'
p250
saa(lp251
S'nano'
p252
a(dp253
S'bootloader'
p254
(dp255
S'extended_fuses'
p256
S'0x00'
p257
sS'high_fuses'
p258
S'0xdd'
p259
sS'low_fuses'
p260
S'0xff'
p261
sS'lock_bits'
p262
S'0x0F'
p263
sS'file'
p264
S'ATmegaBOOT_168_diecimila.hex'
p265
sS'path'
p266
S'atmega'
p267
sS'unlock_bits'
p268
S'0x3F'
p269
ssS'upload'
p270
(dp271
S'protocol'
p272
S'arduino'
p273
sS'maximum_size'
p274
S'14336'
p275
sS'speed'
p276
S'19200'
p277
ssS'build'
p278
(dp279
S'core'
p280
S'arduino'
p281
sS'mcu'
p282
S'atmega168'
p283
sS'f_cpu'
p284
S'16000000L'
p285
sS'variant'
p286
S'eightanaloginputs'
p287
ssS'name'
p288
S'Arduino Nano w/ ATmega168'
p289
saa(lp290
S'mega2560'
p291
a(dp292
S'bootloader'
p293
(dp294
S'extended_fuses'
p295
S'0xFD'
p296
sS'high_fuses'
p297
S'0xD8'
p298
sS'low_fuses'
p299
S'0xFF'
p300
sS'lock_bits'
p301
S'0x0F'
p302
sS'file'
p303
S'stk500boot_v2_mega2560.hex'
p304
sS'path'
p305
S'stk500v2'
p306
sS'unlock_bits'
p307
S'0x3F'
p308
ssS'upload'
p309
(dp310
S'protocol'
p311
S'wiring'
p312
sS'maximum_size'
p313
S'258048'
p314
sS'speed'
p315
S'115200'
p316
ssS'build'
p317
(dp318
S'core'
p319
S'arduino'
p320
sS'mcu'
p321
S'atmega2560'
p322
sS'f_cpu'
p323
S'16000000L'
p324
sS'variant'
p325
S'mega'
p326
ssS'name'
p327
S'Arduino Mega 2560 or Mega ADK'
p328
saa(lp329
S'mega'
p330
a(dp331
S'bootloader'
p332
(dp333
S'extended_fuses'
p334
S'0xF5'
p335
sS'high_fuses'
p336
S'0xDA'
p337
sS'low_fuses'
p338
S'0xFF'
p339
sS'lock_bits'
p340
S'0x0F'
p341
sS'file'
p342
S'ATmegaBOOT_168_atmega1280.hex'
p343
sS'path'
p344
S'atmega'
p345
sS'unlock_bits'
p346
S'0x3F'
p347
ssS'upload'
p348
(dp349
S'protocol'
p350
S'arduino'
p351
sS'maximum_size'
p352
S'126976'
p353
sS'speed'
p354
S'57600'
p355
ssS'build'
p356
(dp357
S'core'
p358
S'arduino'
p359
sS'mcu'
p360
S'atmega1280'
p361
sS'f_cpu'
p362
S'16000000L'
p363
sS'variant'
p364
S'mega'
p365
ssS'name'
p366
S'Arduino Mega (ATmega1280)'
p367
saa(lp368
S'leonardo'
p369
a(dp370
S'bootloader'
p371
(dp372
S'extended_fuses'
p373
S'0xcb'
p374
sS'high_fuses'
p375
S'0xd8'
p376
sS'low_fuses'
p377
S'0xff'
p378
sS'lock_bits'
p379
S'0x2F'
p380
sS'file'
p381
S'Caterina-Leonardo.hex'
p382
sS'path'
p383
S'caterina'
p384
sS'unlock_bits'
p385
S'0x3F'
p386
ssS'upload'
p387
(dp388
S'protocol'
p389
S'avr109'
p390
sS'maximum_size'
p391
S'28672'
p392
sS'speed'
p393
S'57600'
p394
sS'disable_flushing'
p395
S'true'
p396
ssS'build'
p397
(dp398
S'core'
p399
S'arduino'
p400
sS'f_cpu'
p401
S'16000000L'
p402
sS'vid'
p403
S'0x2341'
p404
sS'pid'
p405
S'0x8036'
p406
sS'variant'
p407
S'leonardo'
p408
sS'mcu'
p409
S'atmega32u4'
p410
ssS'name'
p411
S'Arduino Leonardo'
p412
saa(lp413
S'esplora'
p414
a(dp415
S'bootloader'
p416
(dp417
S'extended_fuses'
p418
S'0xcb'
p419
sS'high_fuses'
p420
S'0xd8'
p421
sS'low_fuses'
p422
S'0xff'
p423
sS'lock_bits'
p424
S'0x2F'
p425
sS'file'
p426
S'Caterina-Esplora.hex'
p427
sS'path'
p428
S'caterina'
p429
sS'unlock_bits'
p430
S'0x3F'
p431
ssS'upload'
p432
(dp433
S'protocol'
p434
S'avr109'
p435
sS'maximum_size'
p436
S'28672'
p437
sS'speed'
p438
S'57600'
p439
sS'disable_flushing'
p440
S'true'
p441
ssS'build'
p442
(dp443
S'core'
p444
S'arduino'
p445
sS'f_cpu'
p446
S'16000000L'
p447
sS'vid'
p448
S'0x2341'
p449
sS'pid'
p450
S'0x803C'
p451
sS'variant'
p452
S'leonardo'
p453
sS'mcu'
p454
S'atmega32u4'
p455
ssS'name'
p456
S'Arduino Esplora'
p457
saa(lp458
S'micro'
p459
a(dp460
S'bootloader'
p461
(dp462
S'extended_fuses'
p463
S'0xcb'
p464
sS'high_fuses'
p465
S'0xd8'
p466
sS'low_fuses'
p467
S'0xff'
p468
sS'lock_bits'
p469
S'0x2F'
p470
sS'file'
p471
S'Caterina-Micro.hex'
p472
sS'path'
p473
S'caterina'
p474
sS'unlock_bits'
p475
S'0x3F'
p476
ssS'upload'
p477
(dp478
S'protocol'
p479
S'avr109'
p480
sS'maximum_size'
p481
S'28672'
p482
sS'speed'
p483
S'57600'
p484
sS'disable_flushing'
p485
S'true'
p486
ssS'build'
p487
(dp488
S'core'
p489
S'arduino'
p490
sS'f_cpu'
p491
S'16000000L'
p492
sS'vid'
p493
S'0x2341'
p494
sS'pid'
p495
S'0x8037'
p496
sS'variant'
p497
S'micro'
p498
sS'mcu'
p499
S'atmega32u4'
p500
ssS'name'
p501
S'Arduino Micro'
p502
saa(lp503
S'mini328'
p504
a(dp505
S'bootloader'
p506
(dp507
S'extended_fuses'
p508
S'0x05'
p509
sS'high_fuses'
p510
S'0xd8'
p511
sS'low_fuses'
p512
S'0xff'
p513
sS'lock_bits'
p514
S'0x0F'
p515
sS'file'
p516
S'optiboot_atmega328-Mini.hex'
p517
sS'path'
p518
S'optiboot'
p519
sS'unlock_bits'
p520
S'0x3F'
p521
ssS'upload'
p522
(dp523
S'protocol'
p524
S'arduino'
p525
sS'maximum_size'
p526
S'28672'
p527
sS'speed'
p528
S'115200'
p529
ssS'build'
p530
(dp531
S'core'
p532
S'arduino'
p533
sS'mcu'
p534
S'atmega328p'
p535
sS'f_cpu'
p536
S'16000000L'
p537
sS'variant'
p538
S'eightanaloginputs'
p539
ssS'name'
p540
S'Arduino Mini w/ ATmega328'
p541
saa(lp542
S'mini'
p543
a(dp544
S'bootloader'
p545
(dp546
S'extended_fuses'
p547
S'0x00'
p548
sS'high_fuses'
p549
S'0xdd'
p550
sS'low_fuses'
p551
S'0xff'
p552
sS'lock_bits'
p553
S'0x0F'
p554
sS'file'
p555
S'ATmegaBOOT_168_ng.hex'
p556
sS'path'
p557
S'atmega'
p558
sS'unlock_bits'
p559
S'0x3F'
p560
ssS'upload'
p561
(dp562
S'protocol'
p563
S'arduino'
p564
sS'maximum_size'
p565
S'14336'
p566
sS'speed'
p567
S'19200'
p568
ssS'build'
p569
(dp570
S'core'
p571
S'arduino'
p572
sS'mcu'
p573
S'atmega168'
p574
sS'f_cpu'
p575
S'16000000L'
p576
sS'variant'
p577
S'eightanaloginputs'
p578
ssS'name'
p579
S'Arduino Mini w/ ATmega168'
p580
saa(lp581
S'ethernet'
p582
a(dp583
S'bootloader'
p584
(dp585
S'extended_fuses'
p586
S'0x05'
p587
sS'high_fuses'
p588
S'0xde'
p589
sS'low_fuses'
p590
S'0xff'
p591
sS'lock_bits'
p592
S'0x0F'
p593
sS'file'
p594
S'optiboot_atmega328.hex'
p595
sS'path'
p596
S'optiboot'
p597
sS'unlock_bits'
p598
S'0x3F'
p599
ssS'upload'
p600
(dp601
S'protocol'
p602
S'arduino'
p603
sS'maximum_size'
p604
S'32256'
p605
sS'speed'
p606
S'115200'
p607
ssS'build'
p608
(dp609
S'variant'
p610
S'standard'
p611
sS'mcu'
p612
S'atmega328p'
p613
sS'f_cpu'
p614
S'16000000L'
p615
sS'core'
p616
S'arduino'
p617
ssS'name'
p618
S'Arduino Ethernet'
p619
saa(lp620
S'fio'
p621
a(dp622
S'bootloader'
p623
(dp624
S'extended_fuses'
p625
S'0x05'
p626
sS'high_fuses'
p627
S'0xDA'
p628
sS'low_fuses'
p629
S'0xFF'
p630
sS'lock_bits'
p631
S'0x0F'
p632
sS'file'
p633
S'ATmegaBOOT_168_atmega328_pro_8MHz.hex'
p634
sS'path'
p635
S'arduino:atmega'
p636
sS'unlock_bits'
p637
S'0x3F'
p638
ssS'upload'
p639
(dp640
S'protocol'
p641
S'arduino'
p642
sS'maximum_size'
p643
S'30720'
p644
sS'speed'
p645
S'57600'
p646
ssS'build'
p647
(dp648
S'core'
p649
S'arduino'
p650
sS'mcu'
p651
S'atmega328p'
p652
sS'f_cpu'
p653
S'8000000L'
p654
sS'variant'
p655
S'eightanaloginputs'
p656
ssS'name'
p657
S'Arduino Fio'
p658
saa(lp659
S'bt328'
p660
a(dp661
S'bootloader'
p662
(dp663
S'extended_fuses'
p664
S'0x05'
p665
sS'high_fuses'
p666
S'0xd8'
p667
sS'low_fuses'
p668
S'0xff'
p669
sS'lock_bits'
p670
S'0x0F'
p671
sS'file'
p672
S'ATmegaBOOT_168_atmega328_bt.hex'
p673
sS'path'
p674
S'bt'
p675
sS'unlock_bits'
p676
S'0x3F'
p677
ssS'upload'
p678
(dp679
S'protocol'
p680
S'arduino'
p681
sS'maximum_size'
p682
S'28672'
p683
sS'speed'
p684
S'19200'
p685
sS'disable_flushing'
p686
S'true'
p687
ssS'build'
p688
(dp689
S'core'
p690
S'arduino'
p691
sS'mcu'
p692
S'atmega328p'
p693
sS'f_cpu'
p694
S'16000000L'
p695
sS'variant'
p696
S'eightanaloginputs'
p697
ssS'name'
p698
S'Arduino BT w/ ATmega328'
p699
saa(lp700
S'bt'
p701
a(dp702
S'bootloader'
p703
(dp704
S'extended_fuses'
p705
S'0x00'
p706
sS'high_fuses'
p707
S'0xdd'
p708
sS'low_fuses'
p709
S'0xff'
p710
sS'lock_bits'
p711
S'0x0F'
p712
sS'file'
p713
S'ATmegaBOOT_168.hex'
p714
sS'path'
p715
S'bt'
p716
sS'unlock_bits'
p717
S'0x3F'
p718
ssS'upload'
p719
(dp720
S'protocol'
p721
S'arduino'
p722
sS'maximum_size'
p723
S'14336'
p724
sS'speed'
p725
S'19200'
p726
sS'disable_flushing'
p727
S'true'
p728
ssS'build'
p729
(dp730
S'core'
p731
S'arduino'
p732
sS'mcu'
p733
S'atmega168'
p734
sS'f_cpu'
p735
S'16000000L'
p736
sS'variant'
p737
S'eightanaloginputs'
p738
ssS'name'
p739
S'Arduino BT w/ ATmega168'
p740
saa(lp741
S'LilyPadUSB'
p742
a(dp743
S'bootloader'
p744
(dp745
S'extended_fuses'
p746
S'0xce'
p747
sS'high_fuses'
p748
S'0xd8'
p749
sS'low_fuses'
p750
S'0xff'
p751
sS'lock_bits'
p752
S'0x2F'
p753
sS'file'
p754
S'Caterina-LilyPadUSB.hex'
p755
sS'path'
p756
S'caterina-LilyPadUSB'
p757
sS'unlock_bits'
p758
S'0x3F'
p759
ssS'upload'
p760
(dp761
S'protocol'
p762
S'avr109'
p763
sS'maximum_size'
p764
S'28672'
p765
sS'speed'
p766
S'57600'
p767
sS'disable_flushing'
p768
S'true'
p769
ssS'build'
p770
(dp771
S'core'
p772
S'arduino'
p773
sS'f_cpu'
p774
S'8000000L'
p775
sS'vid'
p776
S'0x1B4F'
p777
sS'pid'
p778
S'0x9208'
p779
sS'variant'
p780
S'leonardo'
p781
sS'mcu'
p782
S'atmega32u4'
p783
ssS'name'
p784
S'LilyPad Arduino USB'
p785
saa(lp786
S'lilypad328'
p787
a(dp788
S'bootloader'
p789
(dp790
S'extended_fuses'
p791
S'0x05'
p792
sS'high_fuses'
p793
S'0xDA'
p794
sS'low_fuses'
p795
S'0xFF'
p796
sS'lock_bits'
p797
S'0x0F'
p798
sS'file'
p799
S'ATmegaBOOT_168_atmega328_pro_8MHz.hex'
p800
sS'path'
p801
S'atmega'
p802
sS'unlock_bits'
p803
S'0x3F'
p804
ssS'upload'
p805
(dp806
S'protocol'
p807
S'arduino'
p808
sS'maximum_size'
p809
S'30720'
p810
sS'speed'
p811
S'57600'
p812
ssS'build'
p813
(dp814
S'core'
p815
S'arduino'
p816
sS'mcu'
p817
S'atmega328p'
p818
sS'f_cpu'
p819
S'8000000L'
p820
sS'variant'
p821
S'standard'
p822
ssS'name'
p823
S'LilyPad Arduino w/ ATmega328'
p824
saa(lp825
S'lilypad'
p826
a(dp827
S'bootloader'
p828
(dp829
S'extended_fuses'
p830
S'0x00'
p831
sS'high_fuses'
p832
S'0xdd'
p833
sS'low_fuses'
p834
S'0xe2'
p835
sS'lock_bits'
p836
S'0x0F'
p837
sS'file'
p838
S'LilyPadBOOT_168.hex'
p839
sS'path'
p840
S'lilypad'
p841
sS'unlock_bits'
p842
S'0x3F'
p843
ssS'upload'
p844
(dp845
S'protocol'
p846
S'arduino'
p847
sS'maximum_size'
p848
S'14336'
p849
sS'speed'
p850
S'19200'
p851
ssS'build'
p852
(dp853
S'core'
p854
S'arduino'
p855
sS'mcu'
p856
S'atmega168'
p857
sS'f_cpu'
p858
S'8000000L'
p859
sS'variant'
p860
S'standard'
p861
ssS'name'
p862
S'LilyPad Arduino w/ ATmega168'
p863
saa(lp864
S'pro5v328'
p865
a(dp866
S'bootloader'
p867
(dp868
S'extended_fuses'
p869
S'0x05'
p870
sS'high_fuses'
p871
S'0xDA'
p872
sS'low_fuses'
p873
S'0xFF'
p874
sS'lock_bits'
p875
S'0x0F'
p876
sS'file'
p877
S'ATmegaBOOT_168_atmega328.hex'
p878
sS'path'
p879
S'atmega'
p880
sS'unlock_bits'
p881
S'0x3F'
p882
ssS'upload'
p883
(dp884
S'protocol'
p885
S'arduino'
p886
sS'maximum_size'
p887
S'30720'
p888
sS'speed'
p889
S'57600'
p890
ssS'build'
p891
(dp892
S'core'
p893
S'arduino'
p894
sS'mcu'
p895
S'atmega328p'
p896
sS'f_cpu'
p897
S'16000000L'
p898
sS'variant'
p899
S'standard'
p900
ssS'name'
p901
S'Arduino Pro or Pro Mini (5V, 16 MHz) w/ ATmega328'
p902
saa(lp903
S'pro5v'
p904
a(dp905
S'bootloader'
p906
(dp907
S'extended_fuses'
p908
S'0x00'
p909
sS'high_fuses'
p910
S'0xdd'
p911
sS'low_fuses'
p912
S'0xff'
p913
sS'lock_bits'
p914
S'0x0F'
p915
sS'file'
p916
S'ATmegaBOOT_168_diecimila.hex'
p917
sS'path'
p918
S'atmega'
p919
sS'unlock_bits'
p920
S'0x3F'
p921
ssS'upload'
p922
(dp923
S'protocol'
p924
S'arduino'
p925
sS'maximum_size'
p926
S'14336'
p927
sS'speed'
p928
S'19200'
p929
ssS'build'
p930
(dp931
S'core'
p932
S'arduino'
p933
sS'mcu'
p934
S'atmega168'
p935
sS'f_cpu'
p936
S'16000000L'
p937
sS'variant'
p938
S'standard'
p939
ssS'name'
p940
S'Arduino Pro or Pro Mini (5V, 16 MHz) w/ ATmega168'
p941
saa(lp942
S'pro328'
p943
a(dp944
S'bootloader'
p945
(dp946
S'extended_fuses'
p947
S'0x05'
p948
sS'high_fuses'
p949
S'0xDA'
p950
sS'low_fuses'
p951
S'0xFF'
p952
sS'lock_bits'
p953
S'0x0F'
p954
sS'file'
p955
S'ATmegaBOOT_168_atmega328_pro_8MHz.hex'
p956
sS'path'
p957
S'atmega'
p958
sS'unlock_bits'
p959
S'0x3F'
p960
ssS'upload'
p961
(dp962
S'protocol'
p963
S'arduino'
p964
sS'maximum_size'
p965
S'30720'
p966
sS'speed'
p967
S'57600'
p968
ssS'build'
p969
(dp970
S'core'
p971
S'arduino'
p972
sS'mcu'
p973
S'atmega328p'
p974
sS'f_cpu'
p975
S'8000000L'
p976
sS'variant'
p977
S'standard'
p978
ssS'name'
p979
S'Arduino Pro or Pro Mini (3.3V, 8 MHz) w/ ATmega328'
p980
saa(lp981
S'pro'
p982
a(dp983
S'bootloader'
p984
(dp985
S'extended_fuses'
p986
S'0x00'
p987
sS'high_fuses'
p988
S'0xdd'
p989
sS'low_fuses'
p990
S'0xc6'
p991
sS'lock_bits'
p992
S'0x0F'
p993
sS'file'
p994
S'ATmegaBOOT_168_pro_8MHz.hex'
p995
sS'path'
p996
S'atmega'
p997
sS'unlock_bits'
p998
S'0x3F'
p999
ssS'upload'
p1000
(dp1001
S'protocol'
p1002
S'arduino'
p1003
sS'maximum_size'
p1004
S'14336'
p1005
sS'speed'
p1006
S'19200'
p1007
ssS'build'
p1008
(dp1009
S'core'
p1010
S'arduino'
p1011
sS'mcu'
p1012
S'atmega168'
p1013
sS'f_cpu'
p1014
S'8000000L'
p1015
sS'variant'
p1016
S'standard'
p1017
ssS'name'
p1018
S'Arduino Pro or Pro Mini (3.3V, 8 MHz) w/ ATmega168'
p1019
saa(lp1020
S'atmega168'
p1021
a(dp1022
S'bootloader'
p1023
(dp1024
S'extended_fuses'
p1025
S'0x00'
p1026
sS'high_fuses'
p1027
S'0xdd'
p1028
sS'low_fuses'
p1029
S'0xff'
p1030
sS'lock_bits'
p1031
S'0x0F'
p1032
sS'file'
p1033
S'ATmegaBOOT_168_ng.hex'
p1034
sS'path'
p1035
S'atmega'
p1036
sS'unlock_bits'
p1037
S'0x3F'
p1038
ssS'upload'
p1039
(dp1040
S'protocol'
p1041
S'arduino'
p1042
sS'maximum_size'
p1043
S'14336'
p1044
sS'speed'
p1045
S'19200'
p1046
ssS'build'
p1047
(dp1048
S'core'
p1049
S'arduino'
p1050
sS'mcu'
p1051
S'atmega168'
p1052
sS'f_cpu'
p1053
S'16000000L'
p1054
sS'variant'
p1055
S'standard'
p1056
ssS'name'
p1057
S'Arduino NG or older w/ ATmega168'
p1058
saa(lp1059
S'atmega8'
p1060
a(dp1061
S'bootloader'
p1062
(dp1063
S'high_fuses'
p1064
S'0xca'
p1065
sS'low_fuses'
p1066
S'0xdf'
p1067
sS'lock_bits'
p1068
S'0x0F'
p1069
sS'file'
p1070
S'ATmegaBOOT-prod-firmware-2009-11-07.hex'
p1071
sS'path'
p1072
S'atmega8'
p1073
sS'unlock_bits'
p1074
S'0x3F'
p1075
ssS'upload'
p1076
(dp1077
S'protocol'
p1078
S'arduino'
p1079
sS'maximum_size'
p1080
S'7168'
p1081
sS'speed'
p1082
S'19200'
p1083
ssS'build'
p1084
(dp1085
S'core'
p1086
S'arduino'
p1087
sS'mcu'
p1088
S'atmega8'
p1089
sS'f_cpu'
p1090
S'16000000L'
p1091
sS'variant'
p1092
S'standard'
p1093
ssS'name'
p1094
S'Arduino NG or older w/ ATmega8'
p1095
saatp1096
Rp1097
(dp1098
S'default'
p1099
S'uno'
p1100
sbtp1101
a(S'ldflags'
p1102
g2
(g3
g4
(lp1103
g6
aS'-Wl,-Os'
p1104
aS'-Wl,--gc-sections'
p1105
atp1106
Rp1107
tp1108
a.